; Function Attrs: mustprogress nounwind uwtable
define dso_local noundef zeroext i1 @_ZN5clang4ento5taint9isTaintedEN4llvm18IntrusiveRefCntPtrIKNS0_12ProgramStateEEEPKNS0_7SymExprEj(ptr nocapture noundef readonly %0, ptr noundef %1, i32 noundef %2) local_unnamed_addr #0 {
  %4 = alloca %"class.std::vector.81", align 8
  %5 = alloca %"class.llvm::IntrusiveRefCntPtr", align 8
  %6 = load ptr, ptr %0, align 8
  store ptr %6, ptr %5, align 8
  %.not.i.i = icmp eq ptr %6, null
  br i1 %.not.i.i, label %_ZN4llvm18IntrusiveRefCntPtrIKN5clang4ento12ProgramStateEEC2ERKS5_.exit, label %7

7:                                                ; preds = %3
  tail call void @_ZN5clang4ento18ProgramStateRetainEPKNS0_12ProgramStateE(ptr noundef nonnull %6) #14
  br label %_ZN4llvm18IntrusiveRefCntPtrIKN5clang4ento12ProgramStateEEC2ERKS5_.exit

_ZN4llvm18IntrusiveRefCntPtrIKN5clang4ento12ProgramStateEEC2ERKS5_.exit: ; preds = %3, %7
  call void @_ZN5clang4ento5taint21getTaintedSymbolsImplEN4llvm18IntrusiveRefCntPtrIKNS0_12ProgramStateEEEPKNS0_7SymExprEjb(ptr dead_on_unwind nonnull writable sret(%"class.std::vector.81") align 8 %4, ptr noundef nonnull %5, ptr noundef %1, i32 noundef %2, i1 noundef zeroext true)
  %8 = load ptr, ptr %4, align 8
  %9 = getelementptr inbounds nuw i8, ptr %4, i64 8
  %10 = load ptr, ptr %9, align 8
  %.not.i.i.i = icmp eq ptr %8, null
  br i1 %.not.i.i.i, label %_ZNSt6vectorIPKN5clang4ento7SymExprESaIS4_EED2Ev.exit, label %11

11:                                               ; preds = %_ZN4llvm18IntrusiveRefCntPtrIKN5clang4ento12ProgramStateEEC2ERKS5_.exit
  %12 = getelementptr inbounds nuw i8, ptr %4, i64 16
  %13 = load ptr, ptr %12, align 8
  %14 = ptrtoint ptr %13 to i64
  %15 = ptrtoint ptr %8 to i64
  %16 = sub i64 %14, %15
  tail call void @_ZdlPvm(ptr noundef nonnull %8, i64 noundef %16) #15
  br label %_ZNSt6vectorIPKN5clang4ento7SymExprESaIS4_EED2Ev.exit

_ZNSt6vectorIPKN5clang4ento7SymExprESaIS4_EED2Ev.exit: ; preds = %_ZN4llvm18IntrusiveRefCntPtrIKN5clang4ento12ProgramStateEEC2ERKS5_.exit, %11
  br i1 %.not.i.i, label %_ZN4llvm18IntrusiveRefCntPtrIKN5clang4ento12ProgramStateEED2Ev.exit, label %17

17:                                               ; preds = %_ZNSt6vectorIPKN5clang4ento7SymExprESaIS4_EED2Ev.exit
  tail call void @_ZN5clang4ento19ProgramStateReleaseEPKNS0_12ProgramStateE(ptr noundef nonnull %6) #14
  br label %_ZN4llvm18IntrusiveRefCntPtrIKN5clang4ento12ProgramStateEED2Ev.exit

_ZN4llvm18IntrusiveRefCntPtrIKN5clang4ento12ProgramStateEED2Ev.exit: ; preds = %_ZNSt6vectorIPKN5clang4ento7SymExprESaIS4_EED2Ev.exit, %17
  %18 = icmp ne ptr %8, %10
  ret i1 %18
}